; Function Attrs: mustprogress nounwind willreturn uwtable
define dso_local void @_ZN4Json5Value8CZStringD2Ev(ptr nocapture noundef nonnull readonly align 8 dereferenceable(12) %0) unnamed_addr #20 align 2 personality ptr @__gxx_personality_v0 {
  %2 = load ptr, ptr %0, align 8
  %.not = icmp eq ptr %2, null
  br i1 %.not, label %9, label %3

3:                                                ; preds = %1
  %4 = getelementptr inbounds i8, ptr %0, i64 8
  %5 = load i32, ptr %4, align 8
  %6 = and i32 %5, 3
  %7 = icmp eq i32 %6, 1
  br i1 %7, label %8, label %9

8:                                                ; preds = %3
  tail call void @free(ptr noundef nonnull %2) #39
  br label %9

9:                                                ; preds = %8, %3, %1
  ret void
}